; Function Attrs: mustprogress uwtable
define dso_local void @_ZN24b3GpuPgsConstraintSolver16recomputeBatchesEv(ptr nocapture noundef nonnull readonly align 8 dereferenceable(228) %this) local_unnamed_addr #1 align 2 {
entry:
  %m_gpuData = getelementptr inbounds i8, ptr %this, i64 16
  %0 = load ptr, ptr %m_gpuData, align 8
  %m_data.i.i = getelementptr inbounds i8, ptr %0, i64 368
  %1 = load ptr, ptr %m_data.i.i, align 8
  %tobool.not.i.i = icmp eq ptr %1, null
  br i1 %tobool.not.i.i, label %_ZN20b3AlignedObjectArrayIiE5clearEv.exit, label %if.then.i.i

if.then.i.i:                                      ; preds = %entry
  %m_ownsMemory.i.i = getelementptr inbounds i8, ptr %0, i64 376
  %2 = load i8, ptr %m_ownsMemory.i.i, align 8
  %3 = and i8 %2, 1
  %tobool2.not.i.i = icmp eq i8 %3, 0
  br i1 %tobool2.not.i.i, label %_ZN20b3AlignedObjectArrayIiE5clearEv.exit, label %if.then3.i.i

if.then3.i.i:                                     ; preds = %if.then.i.i
  tail call void @_Z21b3AlignedFreeInternalPv(ptr noundef nonnull %1)
  br label %_ZN20b3AlignedObjectArrayIiE5clearEv.exit

_ZN20b3AlignedObjectArrayIiE5clearEv.exit:        ; preds = %entry, %if.then.i.i, %if.then3.i.i
  %m_size.i.i = getelementptr inbounds i8, ptr %0, i64 356
  %m_ownsMemory.i1.i = getelementptr inbounds i8, ptr %0, i64 376
  store i8 1, ptr %m_ownsMemory.i1.i, align 8
  store ptr null, ptr %m_data.i.i, align 8
  store i32 0, ptr %m_size.i.i, align 4
  %m_capacity.i.i = getelementptr inbounds i8, ptr %0, i64 360
  store i32 0, ptr %m_capacity.i.i, align 8
  ret void
}